target datalayout = "e-m:e-p270:32:32-p271:32:32-p272:64:64-i64:64-i128:128-f80:128-n8:16:32:64-S128"
target triple = "x86_64-pc-linux-gnu"

%class.btVector3 = type { [4 x float] }
%class.btDeformableContactConstraint = type { ptr, i8, ptr, %class.btVector3 }
%"struct.btSoftBody::Feature" = type { %"struct.btSoftBody::Element", ptr }
%"struct.btSoftBody::Element" = type { ptr }
%"struct.btSoftBody::Face" = type <{ %"struct.btSoftBody::Feature", [3 x ptr], %class.btVector3, float, [4 x i8], ptr, %class.btVector4, %class.btVector3, %class.btVector3, %class.btVector3, i32, [4 x i8] }>
%class.btVector4 = type { %class.btVector3 }
%"struct.btSoftBody::DeformableFaceNodeContact" = type { ptr, ptr, %class.btVector3, %class.btVector3, %class.btVector3, float, float, float, float, ptr }
%class.btDeformableFaceNodeContactConstraint = type { %class.btDeformableContactConstraint, ptr, ptr, ptr, %class.btVector3, %class.btVector3 }

; Function Attrs: inlinehint mustprogress nounwind uwtable
define linkonce_odr dso_local void @_ZN9btVector3C2ERKfS1_S1_(ptr noundef nonnull align 4 dereferenceable(16) %0, ptr noundef nonnull align 4 dereferenceable(4) %1, ptr noundef nonnull align 4 dereferenceable(4) %2, ptr noundef nonnull align 4 dereferenceable(4) %3) unnamed_addr #5 comdat align 2 {
  %5 = alloca ptr, align 8
  %6 = alloca ptr, align 8
  %7 = alloca ptr, align 8
  %8 = alloca ptr, align 8
  store ptr %0, ptr %5, align 8, !tbaa !27
  store ptr %1, ptr %6, align 8, !tbaa !56
  store ptr %2, ptr %7, align 8, !tbaa !56
  store ptr %3, ptr %8, align 8, !tbaa !56
  %9 = load ptr, ptr %5, align 8
  %10 = load ptr, ptr %6, align 8, !tbaa !56
  %11 = load float, ptr %10, align 4, !tbaa !36
  %12 = getelementptr inbounds nuw %class.btVector3, ptr %9, i32 0, i32 0
  %13 = getelementptr inbounds [4 x float], ptr %12, i64 0, i64 0
  store float %11, ptr %13, align 4, !tbaa !36
  %14 = load ptr, ptr %7, align 8, !tbaa !56
  %15 = load float, ptr %14, align 4, !tbaa !36
  %16 = getelementptr inbounds nuw %class.btVector3, ptr %9, i32 0, i32 0
  %17 = getelementptr inbounds [4 x float], ptr %16, i64 0, i64 1
  store float %15, ptr %17, align 4, !tbaa !36
  %18 = load ptr, ptr %8, align 8, !tbaa !56
  %19 = load float, ptr %18, align 4, !tbaa !36
  %20 = getelementptr inbounds nuw %class.btVector3, ptr %9, i32 0, i32 0
  %21 = getelementptr inbounds [4 x float], ptr %20, i64 0, i64 2
  store float %19, ptr %21, align 4, !tbaa !36
  %22 = getelementptr inbounds nuw %class.btVector3, ptr %9, i32 0, i32 0
  %23 = getelementptr inbounds [4 x float], ptr %22, i64 0, i64 3
  store float 0.000000e+00, ptr %23, align 4, !tbaa !36
  ret void
}

; Function Attrs: inlinehint mustprogress uwtable
define linkonce_odr dso_local { <2 x float>, <2 x float> } @_ZmlRK9btVector3RKf(ptr noundef nonnull align 4 dereferenceable(16) %0, ptr noundef nonnull align 4 dereferenceable(4) %1) #8 comdat {
  %3 = alloca %class.btVector3, align 4
  %4 = alloca ptr, align 8
  %5 = alloca ptr, align 8
  %6 = alloca float, align 4
  %7 = alloca float, align 4
  %8 = alloca float, align 4
  store ptr %0, ptr %4, align 8, !tbaa !27
  store ptr %1, ptr %5, align 8, !tbaa !56
  call void @llvm.lifetime.start.p0(i64 4, ptr %6) #13
  %9 = load ptr, ptr %4, align 8, !tbaa !27
  %10 = getelementptr inbounds nuw %class.btVector3, ptr %9, i32 0, i32 0
  %11 = getelementptr inbounds [4 x float], ptr %10, i64 0, i64 0
  %12 = load float, ptr %11, align 4, !tbaa !36
  %13 = load ptr, ptr %5, align 8, !tbaa !56
  %14 = load float, ptr %13, align 4, !tbaa !36
  %15 = fmul float %12, %14
  store float %15, ptr %6, align 4, !tbaa !36
  call void @llvm.lifetime.start.p0(i64 4, ptr %7) #13
  %16 = load ptr, ptr %4, align 8, !tbaa !27
  %17 = getelementptr inbounds nuw %class.btVector3, ptr %16, i32 0, i32 0
  %18 = getelementptr inbounds [4 x float], ptr %17, i64 0, i64 1
  %19 = load float, ptr %18, align 4, !tbaa !36
  %20 = load ptr, ptr %5, align 8, !tbaa !56
  %21 = load float, ptr %20, align 4, !tbaa !36
  %22 = fmul float %19, %21
  store float %22, ptr %7, align 4, !tbaa !36
  call void @llvm.lifetime.start.p0(i64 4, ptr %8) #13
  %23 = load ptr, ptr %4, align 8, !tbaa !27
  %24 = getelementptr inbounds nuw %class.btVector3, ptr %23, i32 0, i32 0
  %25 = getelementptr inbounds [4 x float], ptr %24, i64 0, i64 2
  %26 = load float, ptr %25, align 4, !tbaa !36
  %27 = load ptr, ptr %5, align 8, !tbaa !56
  %28 = load float, ptr %27, align 4, !tbaa !36
  %29 = fmul float %26, %28
  store float %29, ptr %8, align 4, !tbaa !36
  call void @_ZN9btVector3C2ERKfS1_S1_(ptr noundef nonnull align 4 dereferenceable(16) %3, ptr noundef nonnull align 4 dereferenceable(4) %6, ptr noundef nonnull align 4 dereferenceable(4) %7, ptr noundef nonnull align 4 dereferenceable(4) %8)
  call void @llvm.lifetime.end.p0(i64 4, ptr %8) #13
  call void @llvm.lifetime.end.p0(i64 4, ptr %7) #13
  call void @llvm.lifetime.end.p0(i64 4, ptr %6) #13
  %30 = getelementptr inbounds nuw %class.btVector3, ptr %3, i32 0, i32 0
  %31 = load { <2 x float>, <2 x float> }, ptr %30, align 4
  ret { <2 x float>, <2 x float> } %31
}

; Function Attrs: inlinehint mustprogress nounwind uwtable
define linkonce_odr dso_local noundef ptr @_ZNK9btVector3cvPKfEv(ptr noundef nonnull align 4 dereferenceable(16) %0) #5 comdat align 2 {
  %2 = alloca ptr, align 8
  store ptr %0, ptr %2, align 8, !tbaa !27
  %3 = load ptr, ptr %2, align 8
  %4 = getelementptr inbounds nuw %class.btVector3, ptr %3, i32 0, i32 0
  %5 = getelementptr inbounds [4 x float], ptr %4, i64 0, i64 0
  ret ptr %5
}

; Function Attrs: mustprogress nounwind uwtable
define linkonce_odr dso_local noundef ptr @_ZNK37btDeformableFaceNodeContactConstraint10getContactEv(ptr noundef nonnull align 8 dereferenceable(96) %0) #1 comdat align 2 {
  %2 = alloca ptr, align 8
  store ptr %0, ptr %2, align 8, !tbaa !142
  %3 = load ptr, ptr %2, align 8
  %4 = getelementptr inbounds nuw %class.btDeformableFaceNodeContactConstraint, ptr %3, i32 0, i32 3
  %5 = load ptr, ptr %4, align 8, !tbaa !152
  ret ptr %5
}

; Function Attrs: inlinehint mustprogress uwtable
define linkonce_odr dso_local { <2 x float>, <2 x float> } @_ZplRK9btVector3S1_(ptr noundef nonnull align 4 dereferenceable(16) %0, ptr noundef nonnull align 4 dereferenceable(16) %1) #8 comdat {
  %3 = alloca %class.btVector3, align 4
  %4 = alloca ptr, align 8
  %5 = alloca ptr, align 8
  %6 = alloca float, align 4
  %7 = alloca float, align 4
  %8 = alloca float, align 4
  store ptr %0, ptr %4, align 8, !tbaa !27
  store ptr %1, ptr %5, align 8, !tbaa !27
  call void @llvm.lifetime.start.p0(i64 4, ptr %6) #13
  %9 = load ptr, ptr %4, align 8, !tbaa !27
  %10 = getelementptr inbounds nuw %class.btVector3, ptr %9, i32 0, i32 0
  %11 = getelementptr inbounds [4 x float], ptr %10, i64 0, i64 0
  %12 = load float, ptr %11, align 4, !tbaa !36
  %13 = load ptr, ptr %5, align 8, !tbaa !27
  %14 = getelementptr inbounds nuw %class.btVector3, ptr %13, i32 0, i32 0
  %15 = getelementptr inbounds [4 x float], ptr %14, i64 0, i64 0
  %16 = load float, ptr %15, align 4, !tbaa !36
  %17 = fadd float %12, %16
  store float %17, ptr %6, align 4, !tbaa !36
  call void @llvm.lifetime.start.p0(i64 4, ptr %7) #13
  %18 = load ptr, ptr %4, align 8, !tbaa !27
  %19 = getelementptr inbounds nuw %class.btVector3, ptr %18, i32 0, i32 0
  %20 = getelementptr inbounds [4 x float], ptr %19, i64 0, i64 1
  %21 = load float, ptr %20, align 4, !tbaa !36
  %22 = load ptr, ptr %5, align 8, !tbaa !27
  %23 = getelementptr inbounds nuw %class.btVector3, ptr %22, i32 0, i32 0
  %24 = getelementptr inbounds [4 x float], ptr %23, i64 0, i64 1
  %25 = load float, ptr %24, align 4, !tbaa !36
  %26 = fadd float %21, %25
  store float %26, ptr %7, align 4, !tbaa !36
  call void @llvm.lifetime.start.p0(i64 4, ptr %8) #13
  %27 = load ptr, ptr %4, align 8, !tbaa !27
  %28 = getelementptr inbounds nuw %class.btVector3, ptr %27, i32 0, i32 0
  %29 = getelementptr inbounds [4 x float], ptr %28, i64 0, i64 2
  %30 = load float, ptr %29, align 4, !tbaa !36
  %31 = load ptr, ptr %5, align 8, !tbaa !27
  %32 = getelementptr inbounds nuw %class.btVector3, ptr %31, i32 0, i32 0
  %33 = getelementptr inbounds [4 x float], ptr %32, i64 0, i64 2
  %34 = load float, ptr %33, align 4, !tbaa !36
  %35 = fadd float %30, %34
  store float %35, ptr %8, align 4, !tbaa !36
  call void @_ZN9btVector3C2ERKfS1_S1_(ptr noundef nonnull align 4 dereferenceable(16) %3, ptr noundef nonnull align 4 dereferenceable(4) %6, ptr noundef nonnull align 4 dereferenceable(4) %7, ptr noundef nonnull align 4 dereferenceable(4) %8)
  call void @llvm.lifetime.end.p0(i64 4, ptr %8) #13
  call void @llvm.lifetime.end.p0(i64 4, ptr %7) #13
  call void @llvm.lifetime.end.p0(i64 4, ptr %6) #13
  %36 = getelementptr inbounds nuw %class.btVector3, ptr %3, i32 0, i32 0
  %37 = load { <2 x float>, <2 x float> }, ptr %36, align 4
  ret { <2 x float>, <2 x float> } %37
}

; Function Attrs: mustprogress uwtable
define dso_local { <2 x float>, <2 x float> } @_ZNK37btDeformableFaceNodeContactConstraint5getDvEPKN10btSoftBody4NodeE(ptr noundef nonnull align 8 dereferenceable(96) %0, ptr noundef %1) unnamed_addr #3 align 2 {
  %3 = alloca %class.btVector3, align 4
  %4 = alloca ptr, align 8
  %5 = alloca ptr, align 8
  %6 = alloca %class.btVector3, align 4
  %7 = alloca i32, align 4
  %8 = alloca ptr, align 8
  store ptr %0, ptr %4, align 8, !tbaa !142
  store ptr %1, ptr %5, align 8, !tbaa !128
  %9 = load ptr, ptr %4, align 8
  call void @llvm.lifetime.start.p0(i64 16, ptr %6) #13
  %10 = getelementptr inbounds nuw %class.btDeformableFaceNodeContactConstraint, ptr %9, i32 0, i32 4
  %11 = getelementptr inbounds nuw %class.btDeformableFaceNodeContactConstraint, ptr %9, i32 0, i32 5
  %12 = call { <2 x float>, <2 x float> } @_ZplRK9btVector3S1_(ptr noundef nonnull align 4 dereferenceable(16) %10, ptr noundef nonnull align 4 dereferenceable(16) %11)
  %13 = getelementptr inbounds nuw %class.btVector3, ptr %6, i32 0, i32 0
  %14 = getelementptr inbounds nuw { <2 x float>, <2 x float> }, ptr %13, i32 0, i32 0
  %15 = extractvalue { <2 x float>, <2 x float> } %12, 0
  store <2 x float> %15, ptr %14, align 4
  %16 = getelementptr inbounds nuw { <2 x float>, <2 x float> }, ptr %13, i32 0, i32 1
  %17 = extractvalue { <2 x float>, <2 x float> } %12, 1
  store <2 x float> %17, ptr %16, align 4
  %18 = load ptr, ptr %5, align 8, !tbaa !128
  %19 = getelementptr inbounds nuw %class.btDeformableFaceNodeContactConstraint, ptr %9, i32 0, i32 1
  %20 = load ptr, ptr %19, align 8, !tbaa !148
  %21 = icmp eq ptr %18, %20
  br i1 %21, label %22, label %23

22:                                               ; preds = %2
  call void @llvm.memcpy.p0.p0.i64(ptr align 4 %3, ptr align 4 %6, i64 16, i1 false), !tbaa.struct !31
  store i32 1, ptr %7, align 4
  br label %74

23:                                               ; preds = %2
  call void @llvm.lifetime.start.p0(i64 8, ptr %8) #13
  %24 = call noundef ptr @_ZNK37btDeformableFaceNodeContactConstraint10getContactEv(ptr noundef nonnull align 8 dereferenceable(96) %9)
  store ptr %24, ptr %8, align 8, !tbaa !144
  %25 = getelementptr inbounds nuw %class.btDeformableFaceNodeContactConstraint, ptr %9, i32 0, i32 2
  %26 = load ptr, ptr %25, align 8, !tbaa !151
  %27 = getelementptr inbounds nuw %"struct.btSoftBody::Face", ptr %26, i32 0, i32 1
  %28 = getelementptr inbounds [3 x ptr], ptr %27, i64 0, i64 0
  %29 = load ptr, ptr %28, align 8, !tbaa !128
  %30 = load ptr, ptr %5, align 8, !tbaa !128
  %31 = icmp eq ptr %29, %30
  br i1 %31, label %32, label %43

32:                                               ; preds = %23
  %33 = load ptr, ptr %8, align 8, !tbaa !144
  %34 = getelementptr inbounds nuw %"struct.btSoftBody::DeformableFaceNodeContact", ptr %33, i32 0, i32 3
  %35 = call noundef ptr @_ZNK9btVector3cvPKfEv(ptr noundef nonnull align 4 dereferenceable(16) %34)
  %36 = getelementptr inbounds float, ptr %35, i64 0
  %37 = call { <2 x float>, <2 x float> } @_ZmlRK9btVector3RKf(ptr noundef nonnull align 4 dereferenceable(16) %6, ptr noundef nonnull align 4 dereferenceable(4) %36)
  %38 = getelementptr inbounds nuw %class.btVector3, ptr %3, i32 0, i32 0
  %39 = getelementptr inbounds nuw { <2 x float>, <2 x float> }, ptr %38, i32 0, i32 0
  %40 = extractvalue { <2 x float>, <2 x float> } %37, 0
  store <2 x float> %40, ptr %39, align 4
  %41 = getelementptr inbounds nuw { <2 x float>, <2 x float> }, ptr %38, i32 0, i32 1
  %42 = extractvalue { <2 x float>, <2 x float> } %37, 1
  store <2 x float> %42, ptr %41, align 4
  store i32 1, ptr %7, align 4
  br label %73

43:                                               ; preds = %23
  %44 = getelementptr inbounds nuw %class.btDeformableFaceNodeContactConstraint, ptr %9, i32 0, i32 2
  %45 = load ptr, ptr %44, align 8, !tbaa !151
  %46 = getelementptr inbounds nuw %"struct.btSoftBody::Face", ptr %45, i32 0, i32 1
  %47 = getelementptr inbounds [3 x ptr], ptr %46, i64 0, i64 1
  %48 = load ptr, ptr %47, align 8, !tbaa !128
  %49 = load ptr, ptr %5, align 8, !tbaa !128
  %50 = icmp eq ptr %48, %49
  br i1 %50, label %51, label %62

51:                                               ; preds = %43
  %52 = load ptr, ptr %8, align 8, !tbaa !144
  %53 = getelementptr inbounds nuw %"struct.btSoftBody::DeformableFaceNodeContact", ptr %52, i32 0, i32 3
  %54 = call noundef ptr @_ZNK9btVector3cvPKfEv(ptr noundef nonnull align 4 dereferenceable(16) %53)
  %55 = getelementptr inbounds float, ptr %54, i64 1
  %56 = call { <2 x float>, <2 x float> } @_ZmlRK9btVector3RKf(ptr noundef nonnull align 4 dereferenceable(16) %6, ptr noundef nonnull align 4 dereferenceable(4) %55)
  %57 = getelementptr inbounds nuw %class.btVector3, ptr %3, i32 0, i32 0
  %58 = getelementptr inbounds nuw { <2 x float>, <2 x float> }, ptr %57, i32 0, i32 0
  %59 = extractvalue { <2 x float>, <2 x float> } %56, 0
  store <2 x float> %59, ptr %58, align 4
  %60 = getelementptr inbounds nuw { <2 x float>, <2 x float> }, ptr %57, i32 0, i32 1
  %61 = extractvalue { <2 x float>, <2 x float> } %56, 1
  store <2 x float> %61, ptr %60, align 4
  store i32 1, ptr %7, align 4
  br label %73

62:                                               ; preds = %43
  %63 = load ptr, ptr %8, align 8, !tbaa !144
  %64 = getelementptr inbounds nuw %"struct.btSoftBody::DeformableFaceNodeContact", ptr %63, i32 0, i32 3
  %65 = call noundef ptr @_ZNK9btVector3cvPKfEv(ptr noundef nonnull align 4 dereferenceable(16) %64)
  %66 = getelementptr inbounds float, ptr %65, i64 2
  %67 = call { <2 x float>, <2 x float> } @_ZmlRK9btVector3RKf(ptr noundef nonnull align 4 dereferenceable(16) %6, ptr noundef nonnull align 4 dereferenceable(4) %66)
  %68 = getelementptr inbounds nuw %class.btVector3, ptr %3, i32 0, i32 0
  %69 = getelementptr inbounds nuw { <2 x float>, <2 x float> }, ptr %68, i32 0, i32 0
  %70 = extractvalue { <2 x float>, <2 x float> } %67, 0
  store <2 x float> %70, ptr %69, align 4
  %71 = getelementptr inbounds nuw { <2 x float>, <2 x float> }, ptr %68, i32 0, i32 1
  %72 = extractvalue { <2 x float>, <2 x float> } %67, 1
  store <2 x float> %72, ptr %71, align 4
  store i32 1, ptr %7, align 4
  br label %73

73:                                               ; preds = %62, %51, %32
  call void @llvm.lifetime.end.p0(i64 8, ptr %8) #13
  br label %74

74:                                               ; preds = %73, %22
  call void @llvm.lifetime.end.p0(i64 16, ptr %6) #13
  %75 = getelementptr inbounds nuw %class.btVector3, ptr %3, i32 0, i32 0
  %76 = load { <2 x float>, <2 x float> }, ptr %75, align 4
  ret { <2 x float>, <2 x float> } %76
}