; Function Attrs: mustprogress nofree norecurse nosync nounwind willreturn memory(read, inaccessiblemem: none) uwtable
define dso_local { <2 x float>, <2 x float> } @_ZNK37btDeformableFaceNodeContactConstraint5getDvEPKN10btSoftBody4NodeE(ptr noundef nonnull readonly align 8 captures(none) dereferenceable(96) %0, ptr noundef readnone captures(address) %1) unnamed_addr #1 align 2 {
  %3 = getelementptr inbounds nuw i8, ptr %0, i64 64
  %4 = getelementptr inbounds nuw i8, ptr %0, i64 80
  %5 = load float, ptr %3, align 8, !tbaa !37
  %6 = load float, ptr %4, align 8, !tbaa !37
  %7 = fadd float %5, %6
  %8 = getelementptr inbounds nuw i8, ptr %0, i64 68
  %9 = load float, ptr %8, align 4, !tbaa !37
  %10 = getelementptr inbounds nuw i8, ptr %0, i64 84
  %11 = load float, ptr %10, align 4, !tbaa !37
  %12 = fadd float %9, %11
  %13 = getelementptr inbounds nuw i8, ptr %0, i64 72
  %14 = load float, ptr %13, align 8, !tbaa !37
  %15 = getelementptr inbounds nuw i8, ptr %0, i64 88
  %16 = load float, ptr %15, align 8, !tbaa !37
  %17 = fadd float %14, %16
  %.sroa.0.0.vec.insert.i = insertelement <2 x float> poison, float %7, i64 0
  %.sroa.0.4.vec.insert.i = insertelement <2 x float> %.sroa.0.0.vec.insert.i, float %12, i64 1
  %.sroa.3.12.vec.insert.i = insertelement <2 x float> <float poison, float 0.000000e+00>, float %17, i64 0
  %18 = getelementptr inbounds nuw i8, ptr %0, i64 40
  %19 = load ptr, ptr %18, align 8, !tbaa !113
  %20 = icmp eq ptr %1, %19
  br i1 %20, label %38, label %21

21:                                               ; preds = %2
  %22 = getelementptr inbounds nuw i8, ptr %0, i64 56
  %23 = load ptr, ptr %22, align 8, !tbaa !118
  %24 = getelementptr inbounds nuw i8, ptr %0, i64 48
  %25 = load ptr, ptr %24, align 8, !tbaa !117
  %26 = getelementptr inbounds nuw i8, ptr %25, i64 16
  %27 = load ptr, ptr %26, align 8, !tbaa !109
  %28 = icmp eq ptr %27, %1
  br i1 %28, label %.sink.split, label %29

29:                                               ; preds = %21
  %30 = getelementptr inbounds nuw i8, ptr %25, i64 24
  %31 = load ptr, ptr %30, align 8, !tbaa !109
  %32 = icmp eq ptr %31, %1
  %. = select i1 %32, i64 36, i64 40
  br label %.sink.split

.sink.split:                                      ; preds = %29, %21
  %.sink = phi i64 [ 32, %21 ], [ %., %29 ]
  %33 = getelementptr inbounds nuw i8, ptr %23, i64 %.sink
  %34 = load float, ptr %33, align 4, !tbaa !37
  %35 = fmul float %7, %34
  %36 = fmul float %12, %34
  %37 = fmul float %17, %34
  %.sroa.0.0.vec.insert.i8 = insertelement <2 x float> poison, float %35, i64 0
  %.sroa.0.4.vec.insert.i9 = insertelement <2 x float> %.sroa.0.0.vec.insert.i8, float %36, i64 1
  %.sroa.3.12.vec.insert.i10 = insertelement <2 x float> <float poison, float 0.000000e+00>, float %37, i64 0
  br label %38

38:                                               ; preds = %.sink.split, %2
  %.sroa.0.4.vec.insert.i9.pn = phi <2 x float> [ %.sroa.0.4.vec.insert.i, %2 ], [ %.sroa.0.4.vec.insert.i9, %.sink.split ]
  %.sroa.3.12.vec.insert.i10.pn = phi <2 x float> [ %.sroa.3.12.vec.insert.i, %2 ], [ %.sroa.3.12.vec.insert.i10, %.sink.split ]
  %.fca.0.insert.i11.pn = insertvalue { <2 x float>, <2 x float> } poison, <2 x float> %.sroa.0.4.vec.insert.i9.pn, 0
  %.fca.1.insert.merged = insertvalue { <2 x float>, <2 x float> } %.fca.0.insert.i11.pn, <2 x float> %.sroa.3.12.vec.insert.i10.pn, 1
  ret { <2 x float>, <2 x float> } %.fca.1.insert.merged
}